
ivlc_debug.bin: formato do arquivo elf32-bigmips

Disassembly of section .text:

00000000 <entry>:
   0:	241d7fff 	li	sp,32767
   4:	0c00029d 	jal	a74 <main>
   8:	00000000 	nop
   c:	00002021 	move	a0,zero
  10:	0000000c 	syscall
  14:	00000000 	nop
  18:	08000006 	j	18 <entry+0x18>
  1c:	00000000 	nop

00000020 <SystemCall>:
  20:	0000000c 	syscall
  24:	00000000 	nop
  28:	03e00008 	jr	ra
  2c:	00000000 	nop

00000030 <itoa>:
  30:	14800009 	bnez	a0,58 <itoa+0x28>
  34:	00802821 	move	a1,a0
  38:	3c020004 	lui	v0,0x4
  3c:	24441480 	addiu	a0,v0,5248
  40:	00802821 	move	a1,a0
  44:	24030030 	li	v1,48
  48:	a0431480 	sb	v1,5248(v0)
  4c:	00a01021 	move	v0,a1
  50:	03e00008 	jr	ra
  54:	a0800001 	sb	zero,1(a0)
  58:	3c03cccc 	lui	v1,0xcccc
  5c:	3463cccd 	ori	v1,v1,0xcccd
  60:	00830019 	multu	a0,v1
  64:	3c020004 	lui	v0,0x4
  68:	24461481 	addiu	a2,v0,5249
  6c:	3c080004 	lui	t0,0x4
  70:	24070001 	li	a3,1
  74:	00001810 	mfhi	v1
  78:	000318c2 	srl	v1,v1,0x3
  7c:	00031040 	sll	v0,v1,0x1
  80:	000320c0 	sll	a0,v1,0x3
  84:	00441021 	addu	v0,v0,a0
  88:	00a21023 	subu	v0,a1,v0
  8c:	24420030 	addiu	v0,v0,48
  90:	00602821 	move	a1,v1
  94:	10a00013 	beqz	a1,e4 <itoa+0xb4>
  98:	a1021480 	sb	v0,5248(t0)
  9c:	3c03cccc 	lui	v1,0xcccc
  a0:	3463cccd 	ori	v1,v1,0xcccd
  a4:	00a30019 	multu	a1,v1
  a8:	24e70001 	addiu	a3,a3,1
  ac:	00001810 	mfhi	v1
  b0:	000320c2 	srl	a0,v1,0x3
  b4:	00041040 	sll	v0,a0,0x1
  b8:	000418c0 	sll	v1,a0,0x3
  bc:	00431021 	addu	v0,v0,v1
  c0:	00a21023 	subu	v0,a1,v0
  c4:	24420030 	addiu	v0,v0,48
  c8:	a0c20000 	sb	v0,0(a2)
  cc:	2402000b 	li	v0,11
  d0:	10e2000d 	beq	a3,v0,108 <itoa+0xd8>
  d4:	24c60001 	addiu	a2,a2,1
  d8:	00802821 	move	a1,a0
  dc:	14a0fff0 	bnez	a1,a0 <itoa+0x70>
  e0:	3c03cccc 	lui	v1,0xcccc
  e4:	3c040004 	lui	a0,0x4
  e8:	24821474 	addiu	v0,a0,5236
  ec:	00e21021 	addu	v0,a3,v0
  f0:	24e3ffff 	addiu	v1,a3,-1
  f4:	04610008 	bgez	v1,118 <itoa+0xe8>
  f8:	a0400000 	sb	zero,0(v0)
  fc:	24851474 	addiu	a1,a0,5236
 100:	03e00008 	jr	ra
 104:	00a01021 	move	v0,a1
 108:	3c040004 	lui	a0,0x4
 10c:	24821474 	addiu	v0,a0,5236
 110:	2403000a 	li	v1,10
 114:	a040000b 	sb	zero,11(v0)
 118:	24821474 	addiu	v0,a0,5236
 11c:	00621821 	addu	v1,v1,v0
 120:	3c020004 	lui	v0,0x4
 124:	25051480 	addiu	a1,t0,5248
 128:	24461473 	addiu	a2,v0,5235
 12c:	90a20000 	lbu	v0,0(a1)
 130:	00000000 	nop
 134:	a0620000 	sb	v0,0(v1)
 138:	2463ffff 	addiu	v1,v1,-1
 13c:	1466fffb 	bne	v1,a2,12c <itoa+0xfc>
 140:	24a50001 	addiu	a1,a1,1
 144:	08000040 	j	100 <itoa+0xd0>
 148:	24851474 	addiu	a1,a0,5236

0000014c <itoh>:
 14c:	3c080004 	lui	t0,0x4
 150:	25031468 	addiu	v1,t0,5224
 154:	24050030 	li	a1,48
 158:	24020078 	li	v0,120
 15c:	a0620001 	sb	v0,1(v1)
 160:	a060000a 	sb	zero,10(v1)
 164:	1480000b 	bnez	a0,194 <itoh+0x48>
 168:	a1051468 	sb	a1,5224(t0)
 16c:	a0650009 	sb	a1,9(v1)
 170:	a0650002 	sb	a1,2(v1)
 174:	a0650003 	sb	a1,3(v1)
 178:	a0650004 	sb	a1,4(v1)
 17c:	a0650005 	sb	a1,5(v1)
 180:	a0650006 	sb	a1,6(v1)
 184:	a0650007 	sb	a1,7(v1)
 188:	a0650008 	sb	a1,8(v1)
 18c:	03e00008 	jr	ra
 190:	25021468 	addiu	v0,t0,5224
 194:	3c020004 	lui	v0,0x4
 198:	3c030004 	lui	v1,0x4
 19c:	24471471 	addiu	a3,v0,5233
 1a0:	0800006e 	j	1b8 <itoh+0x6c>
 1a4:	24631469 	addiu	v1,v1,5225
 1a8:	a0e60000 	sb	a2,0(a3)
 1ac:	24e7ffff 	addiu	a3,a3,-1
 1b0:	10e3fff6 	beq	a3,v1,18c <itoh+0x40>
 1b4:	00042102 	srl	a0,a0,0x4
 1b8:	3082000f 	andi	v0,a0,0xf
 1bc:	24460030 	addiu	a2,v0,48
 1c0:	24450057 	addiu	a1,v0,87
 1c4:	2c42000a 	sltiu	v0,v0,10
 1c8:	1440fff7 	bnez	v0,1a8 <itoh+0x5c>
 1cc:	00000000 	nop
 1d0:	0800006b 	j	1ac <itoh+0x60>
 1d4:	a0e50000 	sb	a1,0(a3)

000001d8 <abs>:
 1d8:	04800003 	bltz	a0,1e8 <abs+0x10>
 1dc:	00801021 	move	v0,a0
 1e0:	03e00008 	jr	ra
 1e4:	00000000 	nop
 1e8:	03e00008 	jr	ra
 1ec:	00041023 	negu	v0,a0

000001f0 <rand>:
 1f0:	30820001 	andi	v0,a0,0x1
 1f4:	00021023 	negu	v0,v0
 1f8:	3042b400 	andi	v0,v0,0xb400
 1fc:	00042043 	sra	a0,a0,0x1
 200:	00822026 	xor	a0,a0,v0
 204:	14c00002 	bnez	a2,210 <rand+0x20>
 208:	0086001a 	div	zero,a0,a2
 20c:	0007000d 	break	0x7
 210:	00001010 	mfhi	v0
 214:	03e00008 	jr	ra
 218:	00451021 	addu	v0,v0,a1

0000021c <add>:
 21c:	03e00008 	jr	ra
 220:	00851021 	addu	v0,a0,a1

00000224 <sub>:
 224:	03e00008 	jr	ra
 228:	00851023 	subu	v0,a0,a1

0000022c <memset>:
 22c:	18c00008 	blez	a2,250 <memset+0x24>
 230:	00801021 	move	v0,a0
 234:	30a500ff 	andi	a1,a1,0xff
 238:	00c43021 	addu	a2,a2,a0
 23c:	00801821 	move	v1,a0
 240:	a0650000 	sb	a1,0(v1)
 244:	24630001 	addiu	v1,v1,1
 248:	1466fffd 	bne	v1,a2,240 <memset+0x14>
 24c:	00000000 	nop
 250:	03e00008 	jr	ra
 254:	00000000 	nop

00000258 <fixetoa>:
 258:	0480004b 	bltz	a0,388 <fixetoa+0x130>
 25c:	3c0b0004 	lui	t3,0x4
 260:	10800042 	beqz	a0,36c <fixetoa+0x114>
 264:	3c020004 	lui	v0,0x4
 268:	3c0b0004 	lui	t3,0x4
 26c:	00802821 	move	a1,a0
 270:	00003021 	move	a2,zero
 274:	080000a6 	j	298 <fixetoa+0x40>
 278:	25671458 	addiu	a3,t3,5208
 27c:	10400084 	beqz	v0,490 <fixetoa+0x238>
 280:	24020030 	li	v0,48
 284:	a0e20000 	sb	v0,0(a3)
 288:	24c60001 	addiu	a2,a2,1
 28c:	2402000c 	li	v0,12
 290:	10c20015 	beq	a2,v0,2e8 <fixetoa+0x90>
 294:	24e70001 	addiu	a3,a3,1
 298:	00051fc3 	sra	v1,a1,0x1f
 29c:	10a0fff7 	beqz	a1,27c <fixetoa+0x24>
 2a0:	28c20005 	slti	v0,a2,5
 2a4:	3c026666 	lui	v0,0x6666
 2a8:	34426667 	ori	v0,v0,0x6667
 2ac:	00a20018 	mult	a1,v0
 2b0:	24c60001 	addiu	a2,a2,1
 2b4:	00001010 	mfhi	v0
 2b8:	00021083 	sra	v0,v0,0x2
 2bc:	00431023 	subu	v0,v0,v1
 2c0:	00021840 	sll	v1,v0,0x1
 2c4:	000220c0 	sll	a0,v0,0x3
 2c8:	00641821 	addu	v1,v1,a0
 2cc:	00a31823 	subu	v1,a1,v1
 2d0:	24630030 	addiu	v1,v1,48
 2d4:	00402821 	move	a1,v0
 2d8:	2402000c 	li	v0,12
 2dc:	a0e30000 	sb	v1,0(a3)
 2e0:	14c2ffed 	bne	a2,v0,298 <fixetoa+0x40>
 2e4:	24e70001 	addiu	a3,a3,1
 2e8:	3c090004 	lui	t1,0x4
 2ec:	25221448 	addiu	v0,t1,5192
 2f0:	2406000c 	li	a2,12
 2f4:	a040000d 	sb	zero,13(v0)
 2f8:	25671458 	addiu	a3,t3,5208
 2fc:	00002821 	move	a1,zero
 300:	25221448 	addiu	v0,t1,5192
 304:	90e40000 	lbu	a0,0(a3)
 308:	00c21821 	addu	v1,a2,v0
 30c:	24c6ffff 	addiu	a2,a2,-1
 310:	24a50001 	addiu	a1,a1,1
 314:	24e70001 	addiu	a3,a3,1
 318:	00c24021 	addu	t0,a2,v0
 31c:	04c00010 	bltz	a2,360 <fixetoa+0x108>
 320:	a0640000 	sb	a0,0(v1)
 324:	24020004 	li	v0,4
 328:	14a2fff6 	bne	a1,v0,304 <fixetoa+0xac>
 32c:	25221448 	addiu	v0,t1,5192
 330:	2402002e 	li	v0,46
 334:	a1020000 	sb	v0,0(t0)
 338:	24c6ffff 	addiu	a2,a2,-1
 33c:	25221448 	addiu	v0,t1,5192
 340:	90e40000 	lbu	a0,0(a3)
 344:	00c21821 	addu	v1,a2,v0
 348:	24c6ffff 	addiu	a2,a2,-1
 34c:	24a50001 	addiu	a1,a1,1
 350:	24e70001 	addiu	a3,a3,1
 354:	00c24021 	addu	t0,a2,v0
 358:	04c1fff2 	bgez	a2,324 <fixetoa+0xcc>
 35c:	a0640000 	sb	a0,0(v1)
 360:	25251448 	addiu	a1,t1,5192
 364:	03e00008 	jr	ra
 368:	00a01021 	move	v0,a1
 36c:	24441458 	addiu	a0,v0,5208
 370:	00802821 	move	a1,a0
 374:	24030030 	li	v1,48
 378:	a0431458 	sb	v1,5208(v0)
 37c:	00a01021 	move	v0,a1
 380:	03e00008 	jr	ra
 384:	a0800001 	sb	zero,1(a0)
 388:	3c026666 	lui	v0,0x6666
 38c:	00042823 	negu	a1,a0
 390:	344a6667 	ori	t2,v0,0x6667
 394:	00003021 	move	a2,zero
 398:	25671458 	addiu	a3,t3,5208
 39c:	24090030 	li	t1,48
 3a0:	080000f0 	j	3c0 <fixetoa+0x168>
 3a4:	2408000c 	li	t0,12
 3a8:	10400040 	beqz	v0,4ac <fixetoa+0x254>
 3ac:	00000000 	nop
 3b0:	24c60001 	addiu	a2,a2,1
 3b4:	a0e90000 	sb	t1,0(a3)
 3b8:	10c80012 	beq	a2,t0,404 <fixetoa+0x1ac>
 3bc:	24e70001 	addiu	a3,a3,1
 3c0:	00051fc3 	sra	v1,a1,0x1f
 3c4:	10a0fff8 	beqz	a1,3a8 <fixetoa+0x150>
 3c8:	28c20005 	slti	v0,a2,5
 3cc:	00aa0018 	mult	a1,t2
 3d0:	24c60001 	addiu	a2,a2,1
 3d4:	00001010 	mfhi	v0
 3d8:	00021083 	sra	v0,v0,0x2
 3dc:	00431023 	subu	v0,v0,v1
 3e0:	00021840 	sll	v1,v0,0x1
 3e4:	000220c0 	sll	a0,v0,0x3
 3e8:	00641821 	addu	v1,v1,a0
 3ec:	00a31823 	subu	v1,a1,v1
 3f0:	24630030 	addiu	v1,v1,48
 3f4:	a0e30000 	sb	v1,0(a3)
 3f8:	00402821 	move	a1,v0
 3fc:	14c8fff0 	bne	a2,t0,3c0 <fixetoa+0x168>
 400:	24e70001 	addiu	a3,a3,1
 404:	3c090004 	lui	t1,0x4
 408:	25221448 	addiu	v0,t1,5192
 40c:	a040000e 	sb	zero,14(v0)
 410:	2405000d 	li	a1,13
 414:	25671458 	addiu	a3,t3,5208
 418:	00003021 	move	a2,zero
 41c:	25221448 	addiu	v0,t1,5192
 420:	90e40000 	lbu	a0,0(a3)
 424:	00a21821 	addu	v1,a1,v0
 428:	24a5ffff 	addiu	a1,a1,-1
 42c:	24c60001 	addiu	a2,a2,1
 430:	24e70001 	addiu	a3,a3,1
 434:	00a24021 	addu	t0,a1,v0
 438:	04a00010 	bltz	a1,47c <fixetoa+0x224>
 43c:	a0640000 	sb	a0,0(v1)
 440:	24020004 	li	v0,4
 444:	14c2fff6 	bne	a2,v0,420 <fixetoa+0x1c8>
 448:	25221448 	addiu	v0,t1,5192
 44c:	2402002e 	li	v0,46
 450:	a1020000 	sb	v0,0(t0)
 454:	24a5ffff 	addiu	a1,a1,-1
 458:	25221448 	addiu	v0,t1,5192
 45c:	90e40000 	lbu	a0,0(a3)
 460:	00a21821 	addu	v1,a1,v0
 464:	24a5ffff 	addiu	a1,a1,-1
 468:	24c60001 	addiu	a2,a2,1
 46c:	24e70001 	addiu	a3,a3,1
 470:	00a24021 	addu	t0,a1,v0
 474:	04a1fff2 	bgez	a1,440 <fixetoa+0x1e8>
 478:	a0640000 	sb	a0,0(v1)
 47c:	25251448 	addiu	a1,t1,5192
 480:	2402002d 	li	v0,45
 484:	a1221448 	sb	v0,5192(t1)
 488:	03e00008 	jr	ra
 48c:	00a01021 	move	v0,a1
 490:	3c090004 	lui	t1,0x4
 494:	25221448 	addiu	v0,t1,5192
 498:	00c21021 	addu	v0,a2,v0
 49c:	04c1ff96 	bgez	a2,2f8 <fixetoa+0xa0>
 4a0:	a0400001 	sb	zero,1(v0)
 4a4:	080000d9 	j	364 <fixetoa+0x10c>
 4a8:	25251448 	addiu	a1,t1,5192
 4ac:	3c090004 	lui	t1,0x4
 4b0:	25221448 	addiu	v0,t1,5192
 4b4:	00c21021 	addu	v0,a2,v0
 4b8:	24c50001 	addiu	a1,a2,1
 4bc:	04a1ffd5 	bgez	a1,414 <fixetoa+0x1bc>
 4c0:	a0400002 	sb	zero,2(v0)
 4c4:	08000120 	j	480 <fixetoa+0x228>
 4c8:	25251448 	addiu	a1,t1,5192

000004cc <strcpy>:
 4cc:	00801821 	move	v1,a0
 4d0:	80a20000 	lb	v0,0(a1)
 4d4:	24a50001 	addiu	a1,a1,1
 4d8:	a0620000 	sb	v0,0(v1)
 4dc:	1440fffc 	bnez	v0,4d0 <strcpy+0x4>
 4e0:	24630001 	addiu	v1,v1,1
 4e4:	03e00008 	jr	ra
 4e8:	00801021 	move	v0,a0

000004ec <strlen>:
 4ec:	00801821 	move	v1,a0
 4f0:	80620000 	lb	v0,0(v1)
 4f4:	00000000 	nop
 4f8:	1440fffd 	bnez	v0,4f0 <strlen+0x4>
 4fc:	24630001 	addiu	v1,v1,1
 500:	00641023 	subu	v0,v1,a0
 504:	03e00008 	jr	ra
 508:	2442ffff 	addiu	v0,v0,-1

0000050c <getbits>:
 50c:	00073c00 	sll	a3,a3,0x10
 510:	3c0a0004 	lui	t2,0x4
 514:	3c030004 	lui	v1,0x4
 518:	3c090004 	lui	t1,0x4
 51c:	00046400 	sll	t4,a0,0x10
 520:	00052c00 	sll	a1,a1,0x10
 524:	00073c03 	sra	a3,a3,0x10
 528:	000c6403 	sra	t4,t4,0x10
 52c:	00052c03 	sra	a1,a1,0x10
 530:	0140c021 	move	t8,t2
 534:	854b1444 	lh	t3,5188(t2)
 538:	00607821 	move	t7,v1
 53c:	8468143c 	lh	t0,5180(v1)
 540:	8522143e 	lh	v0,5182(t1)
 544:	14e00029 	bnez	a3,5ec <getbits+0xe0>
 548:	01207021 	move	t6,t1
 54c:	1980002f 	blez	t4,60c <getbits+0x100>
 550:	304700ff 	andi	a3,v0,0xff
 554:	000b1080 	sll	v0,t3,0x2
 558:	00463021 	addu	a2,v0,a2
 55c:	00005021 	move	t2,zero
 560:	00001821 	move	v1,zero
 564:	08000160 	j	580 <getbits+0x74>
 568:	240dffff 	li	t5,-1
 56c:	25420001 	addiu	v0,t2,1
 570:	00025400 	sll	t2,v0,0x10
 574:	000a5403 	sra	t2,t2,0x10
 578:	118a0016 	beq	t4,t2,5d4 <getbits+0xc8>
 57c:	00601021 	move	v0,v1
 580:	8cc20000 	lw	v0,0(a2)
 584:	2504ffff 	addiu	a0,t0,-1
 588:	00e21024 	and	v0,a3,v0
 58c:	01021007 	srav	v0,v0,t0
 590:	00044400 	sll	t0,a0,0x10
 594:	00031840 	sll	v1,v1,0x1
 598:	00084403 	sra	t0,t0,0x10
 59c:	25690001 	addiu	t1,t3,1
 5a0:	00073842 	srl	a3,a3,0x1
 5a4:	150dfff1 	bne	t0,t5,56c <getbits+0x60>
 5a8:	00621821 	addu	v1,v1,v0
 5ac:	25420001 	addiu	v0,t2,1
 5b0:	00025400 	sll	t2,v0,0x10
 5b4:	00095c00 	sll	t3,t1,0x10
 5b8:	000a5403 	sra	t2,t2,0x10
 5bc:	000b5c03 	sra	t3,t3,0x10
 5c0:	24c60004 	addiu	a2,a2,4
 5c4:	24080007 	li	t0,7
 5c8:	158affed 	bne	t4,t2,580 <getbits+0x74>
 5cc:	24070080 	li	a3,128
 5d0:	00601021 	move	v0,v1
 5d4:	10a0000b 	beqz	a1,604 <getbits+0xf8>
 5d8:	00000000 	nop
 5dc:	a70b1444 	sh	t3,5188(t8)
 5e0:	a5e8143c 	sh	t0,5180(t7)
 5e4:	03e00008 	jr	ra
 5e8:	a5c7143e 	sh	a3,5182(t6)
 5ec:	24020007 	li	v0,7
 5f0:	a462143c 	sh	v0,5180(v1)
 5f4:	24030080 	li	v1,128
 5f8:	a523143e 	sh	v1,5182(t1)
 5fc:	a5401444 	sh	zero,5188(t2)
 600:	00001021 	move	v0,zero
 604:	03e00008 	jr	ra
 608:	00000000 	nop
 60c:	08000175 	j	5d4 <getbits+0xc8>
 610:	00001021 	move	v0,zero

00000614 <getDC>:
 614:	27bdffe0 	addiu	sp,sp,-32
 618:	afb10014 	sw	s1,20(sp)
 61c:	00a08821 	move	s1,a1
 620:	afb00010 	sw	s0,16(sp)
 624:	00002821 	move	a1,zero
 628:	00048400 	sll	s0,a0,0x10
 62c:	02203021 	move	a2,s1
 630:	24040005 	li	a0,5
 634:	afbf0018 	sw	ra,24(sp)
 638:	0c000143 	jal	50c <getbits>
 63c:	00003821 	move	a3,zero
 640:	00021c00 	sll	v1,v0,0x10
 644:	00031c03 	sra	v1,v1,0x10
 648:	2862001f 	slti	v0,v1,31
 64c:	10400016 	beqz	v0,6a8 <getDC+0x94>
 650:	00108403 	sra	s0,s0,0x10
 654:	12000053 	beqz	s0,7a4 <getDC+0x190>
 658:	3c020000 	lui	v0,0x0
 65c:	3c020000 	lui	v0,0x0
 660:	00031840 	sll	v1,v1,0x1
 664:	24420c84 	addiu	v0,v0,3204
 668:	00621821 	addu	v1,v1,v0
 66c:	80640001 	lb	a0,1(v1)
 670:	24050001 	li	a1,1
 674:	02203021 	move	a2,s1
 678:	80700000 	lb	s0,0(v1)
 67c:	0c000143 	jal	50c <getbits>
 680:	00003821 	move	a3,zero
 684:	1600001e 	bnez	s0,700 <getDC+0xec>
 688:	02203021 	move	a2,s1
 68c:	00001821 	move	v1,zero
 690:	8fbf0018 	lw	ra,24(sp)
 694:	8fb10014 	lw	s1,20(sp)
 698:	8fb00010 	lw	s0,16(sp)
 69c:	00601021 	move	v0,v1
 6a0:	03e00008 	jr	ra
 6a4:	27bd0020 	addiu	sp,sp,32
 6a8:	1600002b 	bnez	s0,758 <getDC+0x144>
 6ac:	02203021 	move	a2,s1
 6b0:	24040009 	li	a0,9
 6b4:	00002821 	move	a1,zero
 6b8:	0c000143 	jal	50c <getbits>
 6bc:	00003821 	move	a3,zero
 6c0:	2442fe10 	addiu	v0,v0,-496
 6c4:	00021400 	sll	v0,v0,0x10
 6c8:	00021403 	sra	v0,v0,0x10
 6cc:	3c030000 	lui	v1,0x0
 6d0:	00021040 	sll	v0,v0,0x1
 6d4:	24630d44 	addiu	v1,v1,3396
 6d8:	00431021 	addu	v0,v0,v1
 6dc:	80500000 	lb	s0,0(v0)
 6e0:	80440001 	lb	a0,1(v0)
 6e4:	24050001 	li	a1,1
 6e8:	02203021 	move	a2,s1
 6ec:	0c000143 	jal	50c <getbits>
 6f0:	00003821 	move	a3,zero
 6f4:	1200ffe6 	beqz	s0,690 <getDC+0x7c>
 6f8:	00001821 	move	v1,zero
 6fc:	02203021 	move	a2,s1
 700:	02002021 	move	a0,s0
 704:	24050001 	li	a1,1
 708:	0c000143 	jal	50c <getbits>
 70c:	00003821 	move	a3,zero
 710:	00021c00 	sll	v1,v0,0x10
 714:	00031c03 	sra	v1,v1,0x10
 718:	2602ffff 	addiu	v0,s0,-1
 71c:	00431007 	srav	v0,v1,v0
 720:	30420001 	andi	v0,v0,0x1
 724:	1440ffda 	bnez	v0,690 <getDC+0x7c>
 728:	24020001 	li	v0,1
 72c:	02021004 	sllv	v0,v0,s0
 730:	00621023 	subu	v0,v1,v0
 734:	24420001 	addiu	v0,v0,1
 738:	00021c00 	sll	v1,v0,0x10
 73c:	00031c03 	sra	v1,v1,0x10
 740:	8fbf0018 	lw	ra,24(sp)
 744:	8fb10014 	lw	s1,20(sp)
 748:	8fb00010 	lw	s0,16(sp)
 74c:	00601021 	move	v0,v1
 750:	03e00008 	jr	ra
 754:	27bd0020 	addiu	sp,sp,32
 758:	2404000a 	li	a0,10
 75c:	00002821 	move	a1,zero
 760:	0c000143 	jal	50c <getbits>
 764:	00003821 	move	a3,zero
 768:	2442fc20 	addiu	v0,v0,-992
 76c:	00021400 	sll	v0,v0,0x10
 770:	00021403 	sra	v0,v0,0x10
 774:	3c030000 	lui	v1,0x0
 778:	24630d04 	addiu	v1,v1,3332
 77c:	00021040 	sll	v0,v0,0x1
 780:	00431021 	addu	v0,v0,v1
 784:	80440001 	lb	a0,1(v0)
 788:	80500000 	lb	s0,0(v0)
 78c:	24050001 	li	a1,1
 790:	02203021 	move	a2,s1
 794:	0c000143 	jal	50c <getbits>
 798:	00003821 	move	a3,zero
 79c:	080001a1 	j	684 <getDC+0x70>
 7a0:	00000000 	nop
 7a4:	00031840 	sll	v1,v1,0x1
 7a8:	0800019a 	j	668 <getDC+0x54>
 7ac:	24420cc4 	addiu	v0,v0,3268

000007b0 <ivlc_func>:
 7b0:	27bdffc8 	addiu	sp,sp,-56
 7b4:	afb00010 	sw	s0,16(sp)
 7b8:	00058400 	sll	s0,a1,0x10
 7bc:	afb40020 	sw	s4,32(sp)
 7c0:	afb3001c 	sw	s3,28(sp)
 7c4:	0006a400 	sll	s4,a2,0x10
 7c8:	afb20018 	sw	s2,24(sp)
 7cc:	00108403 	sra	s0,s0,0x10
 7d0:	00809821 	move	s3,a0
 7d4:	00e09021 	move	s2,a3
 7d8:	00002021 	move	a0,zero
 7dc:	00002821 	move	a1,zero
 7e0:	00003021 	move	a2,zero
 7e4:	24070001 	li	a3,1
 7e8:	afbf0034 	sw	ra,52(sp)
 7ec:	afbe0030 	sw	s8,48(sp)
 7f0:	afb7002c 	sw	s7,44(sp)
 7f4:	afb60028 	sw	s6,40(sp)
 7f8:	afb50024 	sw	s5,36(sp)
 7fc:	afb10014 	sw	s1,20(sp)
 800:	0c000143 	jal	50c <getbits>
 804:	0014a403 	sra	s4,s4,0x10
 808:	12000095 	beqz	s0,a60 <ivlc_func+0x2b0>
 80c:	24040001 	li	a0,1
 810:	0c000185 	jal	614 <getDC>
 814:	02402821 	move	a1,s2
 818:	ae620000 	sw	v0,0(s3)
 81c:	3c020004 	lui	v0,0x4
 820:	3c030004 	lui	v1,0x4
 824:	24561034 	addiu	s6,v0,4148
 828:	2477131c 	addiu	s7,v1,4892
 82c:	3c020004 	lui	v0,0x4
 830:	3c030004 	lui	v1,0x4
 834:	245e131c 	addiu	s8,v0,4892
 838:	24751000 	addiu	s5,v1,4096
 83c:	08000237 	j	8dc <ivlc_func+0x12c>
 840:	24110001 	li	s1,1
 844:	00031a02 	srl	v1,v1,0x8
 848:	00031040 	sll	v0,v1,0x1
 84c:	00431021 	addu	v0,v0,v1
 850:	00568021 	addu	s0,v0,s6
 854:	82040002 	lb	a0,2(s0)
 858:	24050001 	li	a1,1
 85c:	02403021 	move	a2,s2
 860:	0c000143 	jal	50c <getbits>
 864:	00003821 	move	a3,zero
 868:	82030000 	lb	v1,0(s0)
 86c:	24020040 	li	v0,64
 870:	10620032 	beq	v1,v0,93c <ivlc_func+0x18c>
 874:	24020041 	li	v0,65
 878:	1062003c 	beq	v1,v0,96c <ivlc_func+0x1bc>
 87c:	24050001 	li	a1,1
 880:	24040001 	li	a0,1
 884:	02403021 	move	a2,s2
 888:	00003821 	move	a3,zero
 88c:	82100001 	lb	s0,1(s0)
 890:	0c000143 	jal	50c <getbits>
 894:	02238821 	addu	s1,s1,v1
 898:	00402821 	move	a1,v0
 89c:	2a220040 	slti	v0,s1,64
 8a0:	10400026 	beqz	v0,93c <ivlc_func+0x18c>
 8a4:	02351021 	addu	v0,s1,s5
 8a8:	90440000 	lbu	a0,0(v0)
 8ac:	10a00002 	beqz	a1,8b8 <ivlc_func+0x108>
 8b0:	000418c2 	srl	v1,a0,0x3
 8b4:	00108023 	negu	s0,s0
 8b8:	00740018 	mult	v1,s4
 8bc:	000318c0 	sll	v1,v1,0x3
 8c0:	00831823 	subu	v1,a0,v1
 8c4:	26310001 	addiu	s1,s1,1
 8c8:	00001012 	mflo	v0
 8cc:	00431021 	addu	v0,v0,v1
 8d0:	00021080 	sll	v0,v0,0x2
 8d4:	00531021 	addu	v0,v0,s3
 8d8:	ac500000 	sw	s0,0(v0)
 8dc:	24040010 	li	a0,16
 8e0:	00002821 	move	a1,zero
 8e4:	02403021 	move	a2,s2
 8e8:	0c000143 	jal	50c <getbits>
 8ec:	00003821 	move	a3,zero
 8f0:	00401821 	move	v1,v0
 8f4:	2c420400 	sltiu	v0,v0,1024
 8f8:	1040ffd2 	beqz	v0,844 <ivlc_func+0x94>
 8fc:	2c620200 	sltiu	v0,v1,512
 900:	1440002e 	bnez	v0,9bc <ivlc_func+0x20c>
 904:	2c620100 	sltiu	v0,v1,256
 908:	00031982 	srl	v1,v1,0x6
 90c:	00031040 	sll	v0,v1,0x1
 910:	00431021 	addu	v0,v0,v1
 914:	00578021 	addu	s0,v0,s7
 918:	82040002 	lb	a0,2(s0)
 91c:	24050001 	li	a1,1
 920:	02403021 	move	a2,s2
 924:	0c000143 	jal	50c <getbits>
 928:	00003821 	move	a3,zero
 92c:	82030000 	lb	v1,0(s0)
 930:	24020040 	li	v0,64
 934:	1462ffd0 	bne	v1,v0,878 <ivlc_func+0xc8>
 938:	24020041 	li	v0,65
 93c:	8fbf0034 	lw	ra,52(sp)
 940:	8fbe0030 	lw	s8,48(sp)
 944:	8fb7002c 	lw	s7,44(sp)
 948:	8fb60028 	lw	s6,40(sp)
 94c:	8fb50024 	lw	s5,36(sp)
 950:	8fb40020 	lw	s4,32(sp)
 954:	8fb3001c 	lw	s3,28(sp)
 958:	8fb20018 	lw	s2,24(sp)
 95c:	8fb10014 	lw	s1,20(sp)
 960:	8fb00010 	lw	s0,16(sp)
 964:	03e00008 	jr	ra
 968:	27bd0038 	addiu	sp,sp,56
 96c:	24040006 	li	a0,6
 970:	02403021 	move	a2,s2
 974:	0c000143 	jal	50c <getbits>
 978:	00003821 	move	a3,zero
 97c:	2404000c 	li	a0,12
 980:	24050001 	li	a1,1
 984:	02403021 	move	a2,s2
 988:	00003821 	move	a3,zero
 98c:	0c000143 	jal	50c <getbits>
 990:	02228821 	addu	s1,s1,v0
 994:	00408021 	move	s0,v0
 998:	304207ff 	andi	v0,v0,0x7ff
 99c:	1040ffe7 	beqz	v0,93c <ivlc_func+0x18c>
 9a0:	2a020800 	slti	v0,s0,2048
 9a4:	38450001 	xori	a1,v0,0x1
 9a8:	10a0ffbd 	beqz	a1,8a0 <ivlc_func+0xf0>
 9ac:	2a220040 	slti	v0,s1,64
 9b0:	24021000 	li	v0,4096
 9b4:	08000227 	j	89c <ivlc_func+0xec>
 9b8:	00508023 	subu	s0,v0,s0
 9bc:	14400006 	bnez	v0,9d8 <ivlc_func+0x228>
 9c0:	2c620080 	sltiu	v0,v1,128
 9c4:	00031902 	srl	v1,v1,0x4
 9c8:	00031040 	sll	v0,v1,0x1
 9cc:	00431021 	addu	v0,v0,v1
 9d0:	08000215 	j	854 <ivlc_func+0xa4>
 9d4:	005e8021 	addu	s0,v0,s8
 9d8:	14400008 	bnez	v0,9fc <ivlc_func+0x24c>
 9dc:	2c620040 	sltiu	v0,v1,64
 9e0:	000318c2 	srl	v1,v1,0x3
 9e4:	00031040 	sll	v0,v1,0x1
 9e8:	00431021 	addu	v0,v0,v1
 9ec:	3c030004 	lui	v1,0x4
 9f0:	2463134c 	addiu	v1,v1,4940
 9f4:	08000215 	j	854 <ivlc_func+0xa4>
 9f8:	00438021 	addu	s0,v0,v1
 9fc:	14400008 	bnez	v0,a20 <ivlc_func+0x270>
 a00:	2c620020 	sltiu	v0,v1,32
 a04:	00031882 	srl	v1,v1,0x2
 a08:	00031040 	sll	v0,v1,0x1
 a0c:	00431021 	addu	v0,v0,v1
 a10:	3c030004 	lui	v1,0x4
 a14:	2463137c 	addiu	v1,v1,4988
 a18:	08000215 	j	854 <ivlc_func+0xa4>
 a1c:	00438021 	addu	s0,v0,v1
 a20:	10400008 	beqz	v0,a44 <ivlc_func+0x294>
 a24:	2c620010 	sltiu	v0,v1,16
 a28:	1440ffc4 	bnez	v0,93c <ivlc_func+0x18c>
 a2c:	00031040 	sll	v0,v1,0x1
 a30:	00431021 	addu	v0,v0,v1
 a34:	3c030004 	lui	v1,0x4
 a38:	246313dc 	addiu	v1,v1,5084
 a3c:	08000215 	j	854 <ivlc_func+0xa4>
 a40:	00438021 	addu	s0,v0,v1
 a44:	00031842 	srl	v1,v1,0x1
 a48:	00031040 	sll	v0,v1,0x1
 a4c:	00431021 	addu	v0,v0,v1
 a50:	3c030004 	lui	v1,0x4
 a54:	246313ac 	addiu	v1,v1,5036
 a58:	08000215 	j	854 <ivlc_func+0xa4>
 a5c:	00438021 	addu	s0,v0,v1
 a60:	00002021 	move	a0,zero
 a64:	0c000185 	jal	614 <getDC>
 a68:	02402821 	move	a1,s2
 a6c:	08000207 	j	81c <ivlc_func+0x6c>
 a70:	ae620000 	sw	v0,0(s3)

00000a74 <main>:
 a74:	3c050000 	lui	a1,0x0
 a78:	27bdfcd0 	addiu	sp,sp,-816
 a7c:	24a50c54 	addiu	a1,a1,3156
 a80:	24040004 	li	a0,4
 a84:	00003021 	move	a2,zero
 a88:	00003821 	move	a3,zero
 a8c:	afbf0328 	sw	ra,808(sp)
 a90:	afb50324 	sw	s5,804(sp)
 a94:	afb40320 	sw	s4,800(sp)
 a98:	afb3031c 	sw	s3,796(sp)
 a9c:	afb20318 	sw	s2,792(sp)
 aa0:	afb10314 	sw	s1,788(sp)
 aa4:	0c000008 	jal	20 <SystemCall>
 aa8:	afb00310 	sw	s0,784(sp)
 aac:	00002821 	move	a1,zero
 ab0:	00003021 	move	a2,zero
 ab4:	00003821 	move	a3,zero
 ab8:	0c000008 	jal	20 <SystemCall>
 abc:	24040003 	li	a0,3
 ac0:	0c00000c 	jal	30 <itoa>
 ac4:	00402021 	move	a0,v0
 ac8:	00402821 	move	a1,v0
 acc:	24040004 	li	a0,4
 ad0:	00003021 	move	a2,zero
 ad4:	00003821 	move	a3,zero
 ad8:	0c000008 	jal	20 <SystemCall>
 adc:	3c140004 	lui	s4,0x4
 ae0:	2691148c 	addiu	s1,s4,5260
 ae4:	00009821 	move	s3,zero
 ae8:	3c150004 	lui	s5,0x4
 aec:	27b00110 	addiu	s0,sp,272
 af0:	27b20010 	addiu	s2,sp,16
 af4:	24040002 	li	a0,2
 af8:	02202821 	move	a1,s1
 afc:	24060002 	li	a2,2
 b00:	0c000008 	jal	20 <SystemCall>
 b04:	00003821 	move	a3,zero
 b08:	1040fffb 	beqz	v0,af8 <main+0x84>
 b0c:	24040002 	li	a0,2
 b10:	8e86148c 	lw	a2,5260(s4)
 b14:	00000000 	nop
 b18:	18c0000a 	blez	a2,b44 <main+0xd0>
 b1c:	00000000 	nop
 b20:	00002821 	move	a1,zero
 b24:	26a41490 	addiu	a0,s5,5264
 b28:	02001821 	move	v1,s0
 b2c:	8c820000 	lw	v0,0(a0)
 b30:	24a50001 	addiu	a1,a1,1
 b34:	ac620000 	sw	v0,0(v1)
 b38:	24840004 	addiu	a0,a0,4
 b3c:	14c5fffb 	bne	a2,a1,b2c <main+0xb8>
 b40:	24630004 	addiu	v1,v1,4
 b44:	02403821 	move	a3,s2
 b48:	ace00000 	sw	zero,0(a3)
 b4c:	24e70004 	addiu	a3,a3,4
 b50:	14f0fffd 	bne	a3,s0,b48 <main+0xd4>
 b54:	00000000 	nop
 b58:	02402021 	move	a0,s2
 b5c:	00002821 	move	a1,zero
 b60:	0c0001ec 	jal	7b0 <ivlc_func>
 b64:	24060008 	li	a2,8
 b68:	24020040 	li	v0,64
 b6c:	ae82148c 	sw	v0,5260(s4)
 b70:	00003021 	move	a2,zero
 b74:	02402821 	move	a1,s2
 b78:	26a41490 	addiu	a0,s5,5264
 b7c:	24070040 	li	a3,64
 b80:	8ca20000 	lw	v0,0(a1)
 b84:	24c60001 	addiu	a2,a2,1
 b88:	00c7182a 	slt	v1,a2,a3
 b8c:	ac820000 	sw	v0,0(a0)
 b90:	24a50004 	addiu	a1,a1,4
 b94:	1460fffa 	bnez	v1,b80 <main+0x10c>
 b98:	24840004 	addiu	a0,a0,4
 b9c:	24040001 	li	a0,1
 ba0:	02202821 	move	a1,s1
 ba4:	24060001 	li	a2,1
 ba8:	0c000008 	jal	20 <SystemCall>
 bac:	00003821 	move	a3,zero
 bb0:	1040fffb 	beqz	v0,ba0 <main+0x12c>
 bb4:	24040001 	li	a0,1
 bb8:	26730001 	addiu	s3,s3,1
 bbc:	2a620014 	slti	v0,s3,20
 bc0:	1440ffcd 	bnez	v0,af8 <main+0x84>
 bc4:	24040002 	li	a0,2
 bc8:	00002821 	move	a1,zero
 bcc:	00003021 	move	a2,zero
 bd0:	00003821 	move	a3,zero
 bd4:	0c000008 	jal	20 <SystemCall>
 bd8:	24040003 	li	a0,3
 bdc:	0c00000c 	jal	30 <itoa>
 be0:	00402021 	move	a0,v0
 be4:	00402821 	move	a1,v0
 be8:	24040004 	li	a0,4
 bec:	00003021 	move	a2,zero
 bf0:	0c000008 	jal	20 <SystemCall>
 bf4:	00003821 	move	a3,zero
 bf8:	3c050000 	lui	a1,0x0
 bfc:	24a50c70 	addiu	a1,a1,3184
 c00:	24040004 	li	a0,4
 c04:	00003021 	move	a2,zero
 c08:	0c000008 	jal	20 <SystemCall>
 c0c:	00003821 	move	a3,zero
 c10:	00002021 	move	a0,zero
 c14:	00002821 	move	a1,zero
 c18:	00003021 	move	a2,zero
 c1c:	0c000008 	jal	20 <SystemCall>
 c20:	00003821 	move	a3,zero
 c24:	1040fffb 	beqz	v0,c14 <main+0x1a0>
 c28:	00002021 	move	a0,zero
 c2c:	8fbf0328 	lw	ra,808(sp)
 c30:	8fb50324 	lw	s5,804(sp)
 c34:	8fb40320 	lw	s4,800(sp)
 c38:	8fb3031c 	lw	s3,796(sp)
 c3c:	8fb20318 	lw	s2,792(sp)
 c40:	8fb10314 	lw	s1,788(sp)
 c44:	8fb00310 	lw	s0,784(sp)
 c48:	00001021 	move	v0,zero
 c4c:	03e00008 	jr	ra
 c50:	27bd0330 	addiu	sp,sp,816
